target datalayout = "e-m:e-p270:32:32-p271:32:32-p272:64:64-i64:64-i128:128-f80:128-n8:16:32:64-S128"
target triple = "x86_64-pc-linux-gnu"

%class.AccessFlags = type { i32 }
%class.ClassFileParser = type { ptr, ptr, ptr, i8, i8, i32, ptr, ptr, ptr, ptr, ptr, ptr, ptr, i16, ptr, ptr, ptr, ptr, ptr, ptr, ptr, ptr, ptr, ptr, ptr, ptr, ptr, ptr, ptr, ptr, ptr, [128 x i8], i32, i32, i32, %class.Handle, %class.AccessFlags, i32, i16, i8, i32, ptr, i16, i16, i16, i16, i16, i16, i16, i16, i8, i8, i8, i8, i8, i8, i8, i8, i8, i32 }
%class.Handle = type { ptr }
%class.ThreadShadow = type <{ ptr, ptr, ptr, i32, [4 x i8] }>

; Function Attrs: mustprogress nounwind uwtable
define linkonce_odr hidden noundef zeroext i1 @_ZNK15ClassFileParser9is_hiddenEv(ptr noundef nonnull align 8 dereferenceable(440) %0) #1 comdat align 2 {
  %2 = alloca ptr, align 8
  store ptr %0, ptr %2, align 8
  %3 = load ptr, ptr %2, align 8
  %4 = getelementptr inbounds %class.ClassFileParser, ptr %3, i32 0, i32 3
  %5 = load i8, ptr %4, align 8
  %6 = trunc i8 %5 to i1
  ret i1 %6
}

; Function Attrs: mustprogress nounwind uwtable
define linkonce_odr hidden noundef zeroext i1 @_ZNK12ThreadShadow21has_pending_exceptionEv(ptr noundef nonnull align 8 dereferenceable(28) %0) #1 comdat align 2 {
  %2 = alloca ptr, align 8
  store ptr %0, ptr %2, align 8
  %3 = load ptr, ptr %2, align 8
  %4 = getelementptr inbounds %class.ThreadShadow, ptr %3, i32 0, i32 1
  %5 = load ptr, ptr %4, align 8
  %6 = icmp ne ptr %5, null
  ret i1 %6
}

; Function Attrs: mustprogress nounwind uwtable
define hidden noundef ptr @_ZN15ClassFileParser21create_instance_klassEbRK17ClassInstanceInfoP10JavaThread(ptr noundef nonnull align 8 dereferenceable(440) %0, i1 noundef zeroext %1, ptr noundef nonnull align 8 dereferenceable(16) %2, ptr noundef %3) #1 align 2 {
  %5 = alloca ptr, align 8
  %6 = alloca ptr, align 8
  %7 = alloca i8, align 1
  %8 = alloca ptr, align 8
  %9 = alloca ptr, align 8
  %10 = alloca ptr, align 8
  store ptr %0, ptr %6, align 8
  %11 = zext i1 %1 to i8
  store i8 %11, ptr %7, align 1
  store ptr %2, ptr %8, align 8
  store ptr %3, ptr %9, align 8
  %12 = load ptr, ptr %6, align 8
  %13 = getelementptr inbounds %class.ClassFileParser, ptr %12, i32 0, i32 23
  %14 = load ptr, ptr %13, align 8
  %15 = icmp ne ptr %14, null
  br i1 %15, label %16, label %19

16:                                               ; preds = %4
  %17 = getelementptr inbounds %class.ClassFileParser, ptr %12, i32 0, i32 23
  %18 = load ptr, ptr %17, align 8
  store ptr %18, ptr %5, align 8
  br label %40

19:                                               ; preds = %4
  %20 = load ptr, ptr %9, align 8
  %21 = call noundef ptr @_ZN13InstanceKlass23allocate_instance_klassERK15ClassFileParserP10JavaThread(ptr noundef nonnull align 8 dereferenceable(440) %12, ptr noundef %20)
  store ptr %21, ptr %10, align 8
  %22 = load ptr, ptr %9, align 8
  %23 = call noundef zeroext i1 @_ZNK12ThreadShadow21has_pending_exceptionEv(ptr noundef nonnull align 8 dereferenceable(28) %22)
  br i1 %23, label %24, label %25

24:                                               ; preds = %19
  store ptr null, ptr %5, align 8
  br label %40

25:                                               ; preds = %19
  %26 = call noundef zeroext i1 @_ZNK15ClassFileParser9is_hiddenEv(ptr noundef nonnull align 8 dereferenceable(440) %12)
  br i1 %26, label %27, label %29

27:                                               ; preds = %25
  %28 = load ptr, ptr %10, align 8
  call void @_ZN15ClassFileParser24mangle_hidden_class_nameEP13InstanceKlass(ptr noundef nonnull align 8 dereferenceable(440) %12, ptr noundef %28)
  br label %29

29:                                               ; preds = %27, %25
  %30 = load ptr, ptr %10, align 8
  %31 = load i8, ptr %7, align 1
  %32 = trunc i8 %31 to i1
  %33 = load ptr, ptr %8, align 8
  %34 = load ptr, ptr %9, align 8
  call void @_ZN15ClassFileParser19fill_instance_klassEP13InstanceKlassbRK17ClassInstanceInfoP10JavaThread(ptr noundef nonnull align 8 dereferenceable(440) %12, ptr noundef %30, i1 noundef zeroext %32, ptr noundef nonnull align 8 dereferenceable(16) %33, ptr noundef %34)
  %35 = load ptr, ptr %9, align 8
  %36 = call noundef zeroext i1 @_ZNK12ThreadShadow21has_pending_exceptionEv(ptr noundef nonnull align 8 dereferenceable(28) %35)
  br i1 %36, label %37, label %38

37:                                               ; preds = %29
  store ptr null, ptr %5, align 8
  br label %40

38:                                               ; preds = %29
  %39 = load ptr, ptr %10, align 8
  store ptr %39, ptr %5, align 8
  br label %40

40:                                               ; preds = %38, %37, %24, %16
  %41 = load ptr, ptr %5, align 8
  ret ptr %41
}