; Function Attrs: mustprogress nounwind uwtable
define hidden noundef ptr @_ZN15ClassFileParser21create_instance_klassEbRK17ClassInstanceInfoP10JavaThread(ptr noundef nonnull align 8 dereferenceable(440) %0, i1 noundef zeroext %1, ptr nocapture noundef nonnull readonly align 8 dereferenceable(16) %2, ptr noundef %3) local_unnamed_addr #1 align 2 {
  %5 = getelementptr inbounds i8, ptr %0, i64 168
  %6 = load ptr, ptr %5, align 8
  %.not = icmp eq ptr %6, null
  br i1 %.not, label %7, label %18

7:                                                ; preds = %4
  %8 = tail call noundef ptr @_ZN13InstanceKlass23allocate_instance_klassERK15ClassFileParserP10JavaThread(ptr noundef nonnull align 8 dereferenceable(440) %0, ptr noundef %3) #23
  %9 = getelementptr inbounds i8, ptr %3, i64 8
  %10 = load ptr, ptr %9, align 8
  %.not11 = icmp eq ptr %10, null
  br i1 %.not11, label %11, label %18

11:                                               ; preds = %7
  %12 = getelementptr inbounds i8, ptr %0, i64 24
  %13 = load i8, ptr %12, align 8
  %14 = trunc i8 %13 to i1
  br i1 %14, label %15, label %16

15:                                               ; preds = %11
  tail call void @_ZN15ClassFileParser24mangle_hidden_class_nameEP13InstanceKlass(ptr noundef nonnull align 8 dereferenceable(440) %0, ptr noundef %8)
  br label %16

16:                                               ; preds = %15, %11
  tail call void @_ZN15ClassFileParser19fill_instance_klassEP13InstanceKlassbRK17ClassInstanceInfoP10JavaThread(ptr noundef nonnull align 8 dereferenceable(440) %0, ptr noundef %8, i1 noundef zeroext %1, ptr noundef nonnull align 8 dereferenceable(16) %2, ptr noundef nonnull %3)
  %17 = load ptr, ptr %9, align 8
  %.not12 = icmp eq ptr %17, null
  %. = select i1 %.not12, ptr %8, ptr null
  br label %18

18:                                               ; preds = %16, %7, %4
  %.0 = phi ptr [ %6, %4 ], [ null, %7 ], [ %., %16 ]
  ret ptr %.0
}